target datalayout = "e-m:e-p270:32:32-p271:32:32-p272:64:64-i64:64-i128:128-f80:128-n8:16:32:64-S128"
target triple = "x86_64-pc-linux-gnu"

@max_safe_fds = dso_local global i32 48, align 4
@.str.1 = private unnamed_addr constant [5 x i8] c"fd.c\00", align 1
@.str.8 = private unnamed_addr constant [14 x i8] c"out of memory\00", align 1
@maxAllocatedDescs = internal global i32 0, align 4
@allocatedDescs = internal global ptr null, align 8
@numAllocatedDescs = internal global i32 0, align 4
@__func__.reserveAllocatedDesc = private unnamed_addr constant [21 x i8] c"reserveAllocatedDesc\00", align 1

; Function Attrs: nounwind uwtable
define internal zeroext i1 @reserveAllocatedDesc() #0 {
  %1 = alloca i1, align 1
  %2 = alloca ptr, align 8
  %3 = alloca i32, align 4
  %4 = alloca i32, align 4
  call void @llvm.lifetime.start.p0(i64 8, ptr %2) #14
  call void @llvm.lifetime.start.p0(i64 4, ptr %3) #14
  %5 = load i32, ptr @numAllocatedDescs, align 4
  %6 = load i32, ptr @maxAllocatedDescs, align 4
  %7 = icmp slt i32 %5, %6
  br i1 %7, label %8, label %9

8:                                                ; preds = %0
  store i1 true, ptr %1, align 1
  store i32 1, ptr %4, align 4
  br label %53

9:                                                ; preds = %0
  %10 = load ptr, ptr @allocatedDescs, align 8
  %11 = icmp eq ptr %10, null
  br i1 %11, label %12, label %34

12:                                               ; preds = %9
  store i32 16, ptr %3, align 4
  %13 = load i32, ptr %3, align 4
  %14 = sext i32 %13 to i64
  %15 = mul i64 %14, 16
  %16 = call noalias ptr @malloc(i64 noundef %15) #18
  store ptr %16, ptr %2, align 8
  %17 = load ptr, ptr %2, align 8
  %18 = icmp eq ptr %17, null
  br i1 %18, label %19, label %31

19:                                               ; preds = %12
  br label %20

20:                                               ; preds = %19
  br i1 true, label %21, label %23

21:                                               ; preds = %20
  %22 = call zeroext i1 @errstart_cold(i32 noundef 21, ptr noundef null) #16
  br i1 %22, label %25, label %28

23:                                               ; preds = %20
  %24 = call zeroext i1 @errstart(i32 noundef 21, ptr noundef null)
  br i1 %24, label %25, label %28

25:                                               ; preds = %23, %21
  %26 = call i32 @errcode(i32 noundef 8389)
  %27 = call i32 (ptr, ...) @errmsg(ptr noundef @.str.8)
  call void @errfinish(ptr noundef @.str.1, i32 noundef 2553, ptr noundef @__func__.reserveAllocatedDesc)
  br label %28

28:                                               ; preds = %25, %23, %21
  unreachable

29:                                               ; No predecessors!
  br label %30

30:                                               ; preds = %29
  br label %31

31:                                               ; preds = %30, %12
  %32 = load ptr, ptr %2, align 8
  store ptr %32, ptr @allocatedDescs, align 8
  %33 = load i32, ptr %3, align 4
  store i32 %33, ptr @maxAllocatedDescs, align 4
  store i1 true, ptr %1, align 1
  store i32 1, ptr %4, align 4
  br label %53

34:                                               ; preds = %9
  %35 = load i32, ptr @max_safe_fds, align 4
  %36 = sdiv i32 %35, 3
  store i32 %36, ptr %3, align 4
  %37 = load i32, ptr %3, align 4
  %38 = load i32, ptr @maxAllocatedDescs, align 4
  %39 = icmp sgt i32 %37, %38
  br i1 %39, label %40, label %52

40:                                               ; preds = %34
  %41 = load ptr, ptr @allocatedDescs, align 8
  %42 = load i32, ptr %3, align 4
  %43 = sext i32 %42 to i64
  %44 = mul i64 %43, 16
  %45 = call ptr @realloc(ptr noundef %41, i64 noundef %44) #19
  store ptr %45, ptr %2, align 8
  %46 = load ptr, ptr %2, align 8
  %47 = icmp eq ptr %46, null
  br i1 %47, label %48, label %49

48:                                               ; preds = %40
  store i1 false, ptr %1, align 1
  store i32 1, ptr %4, align 4
  br label %53

49:                                               ; preds = %40
  %50 = load ptr, ptr %2, align 8
  store ptr %50, ptr @allocatedDescs, align 8
  %51 = load i32, ptr %3, align 4
  store i32 %51, ptr @maxAllocatedDescs, align 4
  store i1 true, ptr %1, align 1
  store i32 1, ptr %4, align 4
  br label %53

52:                                               ; preds = %34
  store i1 false, ptr %1, align 1
  store i32 1, ptr %4, align 4
  br label %53

53:                                               ; preds = %52, %49, %48, %31, %8
  call void @llvm.lifetime.end.p0(i64 4, ptr %3) #14
  call void @llvm.lifetime.end.p0(i64 8, ptr %2) #14
  %54 = load i1, ptr %1, align 1
  ret i1 %54
}