; Function Attrs: nounwind uwtable
define internal fastcc noundef zeroext i1 @reserveAllocatedDesc() unnamed_addr #0 {
  %1 = load i32, ptr @numAllocatedDescs, align 4
  %2 = load i32, ptr @maxAllocatedDescs, align 4
  %3 = icmp slt i32 %1, %2
  br i1 %3, label %23, label %4

4:                                                ; preds = %0
  %5 = load ptr, ptr @allocatedDescs, align 8
  %6 = icmp eq ptr %5, null
  br i1 %6, label %7, label %14

7:                                                ; preds = %4
  %8 = tail call noalias dereferenceable_or_null(256) ptr @malloc(i64 noundef 256) #28
  %9 = icmp eq ptr %8, null
  br i1 %9, label %10, label %.sink.split

10:                                               ; preds = %7
  %11 = tail call zeroext i1 @errstart_cold(i32 noundef 21, ptr noundef null) #27
  tail call void @llvm.assume(i1 %11)
  %12 = tail call i32 @errcode(i32 noundef 8389) #25
  %13 = tail call i32 (ptr, ...) @errmsg(ptr noundef nonnull @.str.8) #25
  tail call void @errfinish(ptr noundef nonnull @.str.1, i32 noundef 2553, ptr noundef nonnull @__func__.reserveAllocatedDesc) #25
  unreachable

14:                                               ; preds = %4
  %15 = load i32, ptr @max_safe_fds, align 4
  %16 = sdiv i32 %15, 3
  %17 = icmp sgt i32 %16, %2
  br i1 %17, label %18, label %23

18:                                               ; preds = %14
  %19 = zext nneg i32 %16 to i64
  %20 = shl nuw nsw i64 %19, 4
  %21 = tail call ptr @realloc(ptr noundef nonnull %5, i64 noundef %20) #29
  %22 = icmp eq ptr %21, null
  br i1 %22, label %23, label %.sink.split

.sink.split:                                      ; preds = %18, %7
  %.sink14 = phi ptr [ %8, %7 ], [ %21, %18 ]
  %.sink = phi i32 [ 16, %7 ], [ %16, %18 ]
  store ptr %.sink14, ptr @allocatedDescs, align 8
  store i32 %.sink, ptr @maxAllocatedDescs, align 4
  br label %23

23:                                               ; preds = %.sink.split, %14, %18, %0
  %.0 = phi i1 [ true, %0 ], [ false, %18 ], [ false, %14 ], [ true, %.sink.split ]
  ret i1 %.0
}